target datalayout = "e-m:e-p270:32:32-p271:32:32-p272:64:64-i64:64-i128:128-f80:128-n8:16:32:64-S128"
target triple = "x86_64-pc-linux-gnu"

@.str.641 = private unnamed_addr constant [7 x i8] c"vaapi:\00", align 1
@.str.642 = private unnamed_addr constant [5 x i8] c"%s%s\00", align 1

; Function Attrs: nounwind uwtable
define internal i32 @opt_vaapi_device(ptr noundef %0, ptr noundef %1, ptr noundef %2) #0 {
  %4 = alloca i32, align 4
  %5 = alloca ptr, align 8
  %6 = alloca ptr, align 8
  %7 = alloca ptr, align 8
  %8 = alloca ptr, align 8
  %9 = alloca ptr, align 8
  %10 = alloca i32, align 4
  %11 = alloca i32, align 4
  store ptr %0, ptr %5, align 8, !tbaa !26
  store ptr %1, ptr %6, align 8, !tbaa !23
  store ptr %2, ptr %7, align 8, !tbaa !23
  call void @llvm.lifetime.start.p0(i64 8, ptr %8) #12
  store ptr @.str.641, ptr %8, align 8, !tbaa !23
  call void @llvm.lifetime.start.p0(i64 8, ptr %9) #12
  call void @llvm.lifetime.start.p0(i64 4, ptr %10) #12
  %12 = load ptr, ptr %8, align 8, !tbaa !23
  %13 = load ptr, ptr %7, align 8, !tbaa !23
  %14 = call ptr (ptr, ...) @av_asprintf(ptr noundef @.str.642, ptr noundef %12, ptr noundef %13)
  store ptr %14, ptr %9, align 8, !tbaa !23
  %15 = load ptr, ptr %9, align 8, !tbaa !23
  %16 = icmp ne ptr %15, null
  br i1 %16, label %18, label %17

17:                                               ; preds = %3
  store i32 -12, ptr %4, align 4
  store i32 1, ptr %11, align 4
  br label %23

18:                                               ; preds = %3
  %19 = load ptr, ptr %9, align 8, !tbaa !23
  %20 = call i32 @hw_device_init_from_string(ptr noundef %19, ptr noundef null)
  store i32 %20, ptr %10, align 4, !tbaa !16
  %21 = load ptr, ptr %9, align 8, !tbaa !23
  call void @av_free(ptr noundef %21)
  %22 = load i32, ptr %10, align 4, !tbaa !16
  store i32 %22, ptr %4, align 4
  store i32 1, ptr %11, align 4
  br label %23

23:                                               ; preds = %18, %17
  call void @llvm.lifetime.end.p0(i64 4, ptr %10) #12
  call void @llvm.lifetime.end.p0(i64 8, ptr %9) #12
  call void @llvm.lifetime.end.p0(i64 8, ptr %8) #12
  %24 = load i32, ptr %4, align 4
  ret i32 %24
}