; Function Attrs: nounwind uwtable
define internal i32 @opt_vaapi_device(ptr readnone captures(none) %0, ptr readnone captures(none) %1, ptr noundef %2) #0 {
  %4 = tail call ptr (ptr, ...) @av_asprintf(ptr noundef nonnull @.str.642, ptr noundef nonnull @.str.641, ptr noundef %2) #15
  %.not = icmp eq ptr %4, null
  br i1 %.not, label %7, label %5

5:                                                ; preds = %3
  %6 = tail call i32 @hw_device_init_from_string(ptr noundef nonnull %4, ptr noundef null) #15
  tail call void @av_free(ptr noundef nonnull %4) #15
  br label %7

7:                                                ; preds = %3, %5
  %.0 = phi i32 [ %6, %5 ], [ -12, %3 ]
  ret i32 %.0
}